target datalayout = "e-m:e-p270:32:32-p271:32:32-p272:64:64-i64:64-i128:128-f80:128-n8:16:32:64-S128"
target triple = "x86_64-pc-linux-gnu"

%struct._zend_refcounted_h = type { i32, %union.anon }
%union.anon = type { i32 }
%struct._zend_string = type { %struct._zend_refcounted_h, i64, i64, [1 x i8] }

@.str = private unnamed_addr constant [65 x i8] c"ABCDEFGHIJKLMNOPQRSTUVWXYZabcdefghijklmnopqrstuvwxyz0123456789+/\00", align 1
@base64_table = internal constant [65 x i8] c"ABCDEFGHIJKLMNOPQRSTUVWXYZabcdefghijklmnopqrstuvwxyz0123456789+/\00", align 16

; Function Attrs: nounwind uwtable
define ptr @php_base64_encode_avx512_vbmi(ptr noundef %0, i64 noundef %1) #1 {
  %3 = alloca ptr, align 8
  %4 = alloca i32, align 4
  %5 = alloca ptr, align 8
  %6 = alloca i64, align 8
  %7 = alloca ptr, align 8
  %8 = alloca ptr, align 8
  %9 = alloca <8 x i64>, align 64
  %10 = alloca <8 x i64>, align 64
  %11 = alloca <8 x i64>, align 64
  %12 = alloca <8 x i64>, align 64
  %13 = alloca <8 x i64>, align 64
  %14 = alloca <8 x i64>, align 64
  %15 = alloca <8 x i64>, align 64
  %16 = alloca <8 x i64>, align 64
  %17 = alloca <8 x i64>, align 64
  %18 = alloca <8 x i64>, align 64
  %19 = alloca <8 x i64>, align 64
  %20 = alloca <8 x i64>, align 64
  %21 = alloca <8 x i64>, align 64
  %22 = alloca <8 x i64>, align 64
  %23 = alloca ptr, align 8
  %24 = alloca ptr, align 8
  %25 = alloca i64, align 8
  %26 = alloca <8 x i64>, align 64
  %27 = alloca i32, align 4
  %28 = alloca i32, align 4
  %29 = alloca i32, align 4
  %30 = alloca i32, align 4
  %31 = alloca i32, align 4
  %32 = alloca i32, align 4
  %33 = alloca i32, align 4
  %34 = alloca i32, align 4
  %35 = alloca i32, align 4
  %36 = alloca i32, align 4
  %37 = alloca i32, align 4
  %38 = alloca i32, align 4
  %39 = alloca i32, align 4
  %40 = alloca i32, align 4
  %41 = alloca i32, align 4
  %42 = alloca i32, align 4
  %43 = alloca <16 x i32>, align 64
  %44 = alloca i64, align 8
  %45 = alloca i64, align 8
  %46 = alloca i64, align 8
  %47 = alloca i8, align 1
  %48 = alloca ptr, align 8
  %49 = alloca ptr, align 8
  %50 = alloca i64, align 8
  %51 = alloca ptr, align 8
  %52 = alloca ptr, align 8
  %53 = alloca ptr, align 8
  %54 = alloca <8 x i64>, align 64
  %55 = alloca <8 x i64>, align 64
  %56 = alloca ptr, align 8
  %57 = alloca <8 x i64>, align 64
  %58 = alloca <8 x i64>, align 64
  %59 = alloca <8 x i64>, align 64
  %60 = alloca <8 x i64>, align 64
  %61 = alloca <8 x i64>, align 64
  %62 = alloca <8 x i64>, align 64
  %63 = alloca <8 x i64>, align 64
  %64 = alloca <8 x i64>, align 64
  %65 = alloca <8 x i64>, align 64
  store ptr %0, ptr %49, align 8
  store i64 %1, ptr %50, align 8
  %66 = load ptr, ptr %49, align 8
  store ptr %66, ptr %51, align 8
  %67 = load i64, ptr %50, align 8
  %68 = add i64 %67, 2
  %69 = udiv i64 %68, 3
  store i64 %69, ptr %44, align 8
  store i64 4, ptr %45, align 8
  store i64 0, ptr %46, align 8
  store i8 0, ptr %47, align 1
  %70 = load i8, ptr %47, align 1
  %71 = trunc i8 %70 to i1
  br i1 %71, label %72, label %82

72:                                               ; preds = %2
  %73 = load i64, ptr %44, align 8
  %74 = load i64, ptr %45, align 8
  %75 = load i64, ptr %46, align 8
  %76 = add i64 24, %75
  %77 = add i64 %76, 1
  %78 = add i64 %77, 8
  %79 = sub i64 %78, 1
  %80 = and i64 %79, -8
  %81 = call noalias ptr @_safe_malloc(i64 noundef %73, i64 noundef %74, i64 noundef %80) #13
  br label %92

82:                                               ; preds = %2
  %83 = load i64, ptr %44, align 8
  %84 = load i64, ptr %45, align 8
  %85 = load i64, ptr %46, align 8
  %86 = add i64 24, %85
  %87 = add i64 %86, 1
  %88 = add i64 %87, 8
  %89 = sub i64 %88, 1
  %90 = and i64 %89, -8
  %91 = call noalias ptr @_safe_emalloc(i64 noundef %83, i64 noundef %84, i64 noundef %90) #13
  br label %92

92:                                               ; preds = %82, %72
  %93 = phi ptr [ %81, %72 ], [ %91, %82 ]
  store ptr %93, ptr %48, align 8
  %94 = load ptr, ptr %48, align 8
  store ptr %94, ptr %3, align 8
  store i32 1, ptr %4, align 4
  %95 = load i32, ptr %4, align 4
  %96 = load ptr, ptr %3, align 8
  store i32 %95, ptr %96, align 4
  %97 = load i8, ptr %47, align 1
  %98 = trunc i8 %97 to i1
  %99 = select i1 %98, i32 128, i32 0
  %100 = or i32 22, %99
  %101 = load ptr, ptr %48, align 8
  %102 = getelementptr inbounds %struct._zend_refcounted_h, ptr %101, i32 0, i32 1
  store i32 %100, ptr %102, align 4
  %103 = load ptr, ptr %48, align 8
  %104 = getelementptr inbounds %struct._zend_string, ptr %103, i32 0, i32 1
  store i64 0, ptr %104, align 8
  %105 = load i64, ptr %44, align 8
  %106 = load i64, ptr %45, align 8
  %107 = mul i64 %105, %106
  %108 = load i64, ptr %46, align 8
  %109 = add i64 %107, %108
  %110 = load ptr, ptr %48, align 8
  %111 = getelementptr inbounds %struct._zend_string, ptr %110, i32 0, i32 2
  store i64 %109, ptr %111, align 8
  %112 = load ptr, ptr %48, align 8
  store ptr %112, ptr %53, align 8
  %113 = load ptr, ptr %53, align 8
  %114 = getelementptr inbounds %struct._zend_string, ptr %113, i32 0, i32 3
  %115 = getelementptr inbounds [1 x i8], ptr %114, i64 0, i64 0
  store ptr %115, ptr %52, align 8
  store i32 774843694, ptr %27, align 4
  store i32 724314667, ptr %28, align 4
  store i32 673785640, ptr %29, align 4
  store i32 623256613, ptr %30, align 4
  store i32 572727586, ptr %31, align 4
  store i32 522198559, ptr %32, align 4
  store i32 471669532, ptr %33, align 4
  store i32 421140505, ptr %34, align 4
  store i32 370611478, ptr %35, align 4
  store i32 320082451, ptr %36, align 4
  store i32 269553424, ptr %37, align 4
  store i32 219024397, ptr %38, align 4
  store i32 168495370, ptr %39, align 4
  store i32 117966343, ptr %40, align 4
  store i32 67437316, ptr %41, align 4
  store i32 16908289, ptr %42, align 4
  %116 = load i32, ptr %42, align 4
  %117 = insertelement <16 x i32> poison, i32 %116, i32 0
  %118 = load i32, ptr %41, align 4
  %119 = insertelement <16 x i32> %117, i32 %118, i32 1
  %120 = load i32, ptr %40, align 4
  %121 = insertelement <16 x i32> %119, i32 %120, i32 2
  %122 = load i32, ptr %39, align 4
  %123 = insertelement <16 x i32> %121, i32 %122, i32 3
  %124 = load i32, ptr %38, align 4
  %125 = insertelement <16 x i32> %123, i32 %124, i32 4
  %126 = load i32, ptr %37, align 4
  %127 = insertelement <16 x i32> %125, i32 %126, i32 5
  %128 = load i32, ptr %36, align 4
  %129 = insertelement <16 x i32> %127, i32 %128, i32 6
  %130 = load i32, ptr %35, align 4
  %131 = insertelement <16 x i32> %129, i32 %130, i32 7
  %132 = load i32, ptr %34, align 4
  %133 = insertelement <16 x i32> %131, i32 %132, i32 8
  %134 = load i32, ptr %33, align 4
  %135 = insertelement <16 x i32> %133, i32 %134, i32 9
  %136 = load i32, ptr %32, align 4
  %137 = insertelement <16 x i32> %135, i32 %136, i32 10
  %138 = load i32, ptr %31, align 4
  %139 = insertelement <16 x i32> %137, i32 %138, i32 11
  %140 = load i32, ptr %30, align 4
  %141 = insertelement <16 x i32> %139, i32 %140, i32 12
  %142 = load i32, ptr %29, align 4
  %143 = insertelement <16 x i32> %141, i32 %142, i32 13
  %144 = load i32, ptr %28, align 4
  %145 = insertelement <16 x i32> %143, i32 %144, i32 14
  %146 = load i32, ptr %27, align 4
  %147 = insertelement <16 x i32> %145, i32 %146, i32 15
  store <16 x i32> %147, ptr %43, align 64
  %148 = load <16 x i32>, ptr %43, align 64
  %149 = bitcast <16 x i32> %148 to <8 x i64>
  store <8 x i64> %149, ptr %54, align 64
  store i64 3474003925640021002, ptr %25, align 8
  %150 = load i64, ptr %25, align 8
  %151 = insertelement <8 x i64> poison, i64 %150, i32 0
  %152 = load i64, ptr %25, align 8
  %153 = insertelement <8 x i64> %151, i64 %152, i32 1
  %154 = load i64, ptr %25, align 8
  %155 = insertelement <8 x i64> %153, i64 %154, i32 2
  %156 = load i64, ptr %25, align 8
  %157 = insertelement <8 x i64> %155, i64 %156, i32 3
  %158 = load i64, ptr %25, align 8
  %159 = insertelement <8 x i64> %157, i64 %158, i32 4
  %160 = load i64, ptr %25, align 8
  %161 = insertelement <8 x i64> %159, i64 %160, i32 5
  %162 = load i64, ptr %25, align 8
  %163 = insertelement <8 x i64> %161, i64 %162, i32 6
  %164 = load i64, ptr %25, align 8
  %165 = insertelement <8 x i64> %163, i64 %164, i32 7
  store <8 x i64> %165, ptr %26, align 64
  %166 = load <8 x i64>, ptr %26, align 64
  store <8 x i64> %166, ptr %55, align 64
  store ptr @.str, ptr %56, align 8
  %167 = load ptr, ptr %56, align 8
  store ptr %167, ptr %23, align 8
  %168 = load ptr, ptr %23, align 8
  %169 = load <8 x i64>, ptr %168, align 1
  store <8 x i64> %169, ptr %57, align 64
  br label %170

170:                                              ; preds = %173, %92
  %171 = load i64, ptr %50, align 8
  %172 = icmp ugt i64 %171, 63
  br i1 %172, label %173, label %218

173:                                              ; preds = %170
  %174 = load ptr, ptr %51, align 8
  store ptr %174, ptr %24, align 8
  %175 = load ptr, ptr %24, align 8
  %176 = load <8 x i64>, ptr %175, align 1
  store <8 x i64> %176, ptr %58, align 64
  %177 = load <8 x i64>, ptr %54, align 64
  %178 = load <8 x i64>, ptr %58, align 64
  store <8 x i64> %177, ptr %59, align 64
  store <8 x i64> %178, ptr %60, align 64
  call void @llvm.memcpy.p0.p0.i64(ptr align 1 %17, ptr align 1 %60, i64 64, i1 false)
  call void @llvm.memcpy.p0.p0.i64(ptr align 1 %18, ptr align 1 %59, i64 64, i1 false)
  %179 = load <8 x i64>, ptr %18, align 64
  %180 = load <8 x i64>, ptr %17, align 64
  store <8 x i64> %179, ptr %15, align 64
  store <8 x i64> %180, ptr %16, align 64
  %181 = load <8 x i64>, ptr %16, align 64
  %182 = bitcast <8 x i64> %181 to <64 x i8>
  %183 = load <8 x i64>, ptr %15, align 64
  %184 = bitcast <8 x i64> %183 to <64 x i8>
  %185 = call <64 x i8> @llvm.x86.avx512.permvar.qi.512(<64 x i8> %182, <64 x i8> %184)
  %186 = bitcast <64 x i8> %185 to <8 x i64>
  store <8 x i64> %186, ptr %58, align 64
  %187 = load <8 x i64>, ptr %55, align 64
  %188 = load <8 x i64>, ptr %58, align 64
  store <8 x i64> %187, ptr %61, align 64
  store <8 x i64> %188, ptr %62, align 64
  call void @llvm.memcpy.p0.p0.i64(ptr align 1 %13, ptr align 1 %62, i64 64, i1 false)
  call void @llvm.memcpy.p0.p0.i64(ptr align 1 %14, ptr align 1 %61, i64 64, i1 false)
  %189 = load <8 x i64>, ptr %14, align 64
  %190 = load <8 x i64>, ptr %13, align 64
  store <8 x i64> %189, ptr %11, align 64
  store <8 x i64> %190, ptr %12, align 64
  %191 = load <8 x i64>, ptr %11, align 64
  %192 = bitcast <8 x i64> %191 to <64 x i8>
  %193 = load <8 x i64>, ptr %12, align 64
  %194 = bitcast <8 x i64> %193 to <64 x i8>
  %195 = call <64 x i8> @llvm.x86.avx512.pmultishift.qb.512(<64 x i8> %192, <64 x i8> %194)
  %196 = bitcast <64 x i8> %195 to <8 x i64>
  store <8 x i64> %196, ptr %58, align 64
  %197 = load <8 x i64>, ptr %58, align 64
  %198 = load <8 x i64>, ptr %57, align 64
  store <8 x i64> %197, ptr %63, align 64
  store <8 x i64> %198, ptr %64, align 64
  call void @llvm.memcpy.p0.p0.i64(ptr align 1 %21, ptr align 1 %64, i64 64, i1 false)
  call void @llvm.memcpy.p0.p0.i64(ptr align 1 %22, ptr align 1 %63, i64 64, i1 false)
  %199 = load <8 x i64>, ptr %22, align 64
  %200 = load <8 x i64>, ptr %21, align 64
  store <8 x i64> %199, ptr %19, align 64
  store <8 x i64> %200, ptr %20, align 64
  %201 = load <8 x i64>, ptr %20, align 64
  %202 = bitcast <8 x i64> %201 to <64 x i8>
  %203 = load <8 x i64>, ptr %19, align 64
  %204 = bitcast <8 x i64> %203 to <64 x i8>
  %205 = call <64 x i8> @llvm.x86.avx512.permvar.qi.512(<64 x i8> %202, <64 x i8> %204)
  %206 = bitcast <64 x i8> %205 to <8 x i64>
  store <8 x i64> %206, ptr %58, align 64
  %207 = load ptr, ptr %52, align 8
  %208 = load <8 x i64>, ptr %58, align 64
  store <8 x i64> %208, ptr %65, align 64
  call void @llvm.memcpy.p0.p0.i64(ptr align 1 %10, ptr align 1 %65, i64 64, i1 false)
  %209 = load <8 x i64>, ptr %10, align 64
  store ptr %207, ptr %8, align 8
  store <8 x i64> %209, ptr %9, align 64
  %210 = load <8 x i64>, ptr %9, align 64
  %211 = load ptr, ptr %8, align 8
  store <8 x i64> %210, ptr %211, align 1
  %212 = load ptr, ptr %51, align 8
  %213 = getelementptr inbounds i8, ptr %212, i64 48
  store ptr %213, ptr %51, align 8
  %214 = load ptr, ptr %52, align 8
  %215 = getelementptr inbounds i8, ptr %214, i64 64
  store ptr %215, ptr %52, align 8
  %216 = load i64, ptr %50, align 8
  %217 = sub i64 %216, 48
  store i64 %217, ptr %50, align 8
  br label %170

218:                                              ; preds = %170
  %219 = load ptr, ptr %51, align 8
  %220 = load i64, ptr %50, align 8
  %221 = load ptr, ptr %52, align 8
  store ptr %219, ptr %5, align 8
  store i64 %220, ptr %6, align 8
  store ptr %221, ptr %7, align 8
  br label %222

222:                                              ; preds = %225, %218
  %223 = load i64, ptr %6, align 8
  %224 = icmp ugt i64 %223, 2
  br i1 %224, label %225, label %282

225:                                              ; preds = %222
  %226 = load ptr, ptr %5, align 8
  %227 = load i8, ptr %226, align 1
  %228 = zext i8 %227 to i32
  %229 = ashr i32 %228, 2
  %230 = sext i32 %229 to i64
  %231 = getelementptr inbounds [65 x i8], ptr @base64_table, i64 0, i64 %230
  %232 = load i8, ptr %231, align 1
  %233 = load ptr, ptr %7, align 8
  %234 = getelementptr inbounds i8, ptr %233, i32 1
  store ptr %234, ptr %7, align 8
  store i8 %232, ptr %233, align 1
  %235 = load ptr, ptr %5, align 8
  %236 = load i8, ptr %235, align 1
  %237 = zext i8 %236 to i32
  %238 = and i32 %237, 3
  %239 = shl i32 %238, 4
  %240 = load ptr, ptr %5, align 8
  %241 = getelementptr inbounds i8, ptr %240, i64 1
  %242 = load i8, ptr %241, align 1
  %243 = zext i8 %242 to i32
  %244 = ashr i32 %243, 4
  %245 = add nsw i32 %239, %244
  %246 = sext i32 %245 to i64
  %247 = getelementptr inbounds [65 x i8], ptr @base64_table, i64 0, i64 %246
  %248 = load i8, ptr %247, align 1
  %249 = load ptr, ptr %7, align 8
  %250 = getelementptr inbounds i8, ptr %249, i32 1
  store ptr %250, ptr %7, align 8
  store i8 %248, ptr %249, align 1
  %251 = load ptr, ptr %5, align 8
  %252 = getelementptr inbounds i8, ptr %251, i64 1
  %253 = load i8, ptr %252, align 1
  %254 = zext i8 %253 to i32
  %255 = and i32 %254, 15
  %256 = shl i32 %255, 2
  %257 = load ptr, ptr %5, align 8
  %258 = getelementptr inbounds i8, ptr %257, i64 2
  %259 = load i8, ptr %258, align 1
  %260 = zext i8 %259 to i32
  %261 = ashr i32 %260, 6
  %262 = add nsw i32 %256, %261
  %263 = sext i32 %262 to i64
  %264 = getelementptr inbounds [65 x i8], ptr @base64_table, i64 0, i64 %263
  %265 = load i8, ptr %264, align 1
  %266 = load ptr, ptr %7, align 8
  %267 = getelementptr inbounds i8, ptr %266, i32 1
  store ptr %267, ptr %7, align 8
  store i8 %265, ptr %266, align 1
  %268 = load ptr, ptr %5, align 8
  %269 = getelementptr inbounds i8, ptr %268, i64 2
  %270 = load i8, ptr %269, align 1
  %271 = zext i8 %270 to i32
  %272 = and i32 %271, 63
  %273 = sext i32 %272 to i64
  %274 = getelementptr inbounds [65 x i8], ptr @base64_table, i64 0, i64 %273
  %275 = load i8, ptr %274, align 1
  %276 = load ptr, ptr %7, align 8
  %277 = getelementptr inbounds i8, ptr %276, i32 1
  store ptr %277, ptr %7, align 8
  store i8 %275, ptr %276, align 1
  %278 = load ptr, ptr %5, align 8
  %279 = getelementptr inbounds i8, ptr %278, i64 3
  store ptr %279, ptr %5, align 8
  %280 = load i64, ptr %6, align 8
  %281 = sub i64 %280, 3
  store i64 %281, ptr %6, align 8
  br label %222

282:                                              ; preds = %222
  %283 = load i64, ptr %6, align 8
  %284 = icmp ne i64 %283, 0
  br i1 %284, label %285, label %343

285:                                              ; preds = %282
  %286 = load ptr, ptr %5, align 8
  %287 = load i8, ptr %286, align 1
  %288 = zext i8 %287 to i32
  %289 = ashr i32 %288, 2
  %290 = sext i32 %289 to i64
  %291 = getelementptr inbounds [65 x i8], ptr @base64_table, i64 0, i64 %290
  %292 = load i8, ptr %291, align 1
  %293 = load ptr, ptr %7, align 8
  %294 = getelementptr inbounds i8, ptr %293, i32 1
  store ptr %294, ptr %7, align 8
  store i8 %292, ptr %293, align 1
  %295 = load i64, ptr %6, align 8
  %296 = icmp ugt i64 %295, 1
  br i1 %296, label %297, label %327

297:                                              ; preds = %285
  %298 = load ptr, ptr %5, align 8
  %299 = load i8, ptr %298, align 1
  %300 = zext i8 %299 to i32
  %301 = and i32 %300, 3
  %302 = shl i32 %301, 4
  %303 = load ptr, ptr %5, align 8
  %304 = getelementptr inbounds i8, ptr %303, i64 1
  %305 = load i8, ptr %304, align 1
  %306 = zext i8 %305 to i32
  %307 = ashr i32 %306, 4
  %308 = add nsw i32 %302, %307
  %309 = sext i32 %308 to i64
  %310 = getelementptr inbounds [65 x i8], ptr @base64_table, i64 0, i64 %309
  %311 = load i8, ptr %310, align 1
  %312 = load ptr, ptr %7, align 8
  %313 = getelementptr inbounds i8, ptr %312, i32 1
  store ptr %313, ptr %7, align 8
  store i8 %311, ptr %312, align 1
  %314 = load ptr, ptr %5, align 8
  %315 = getelementptr inbounds i8, ptr %314, i64 1
  %316 = load i8, ptr %315, align 1
  %317 = zext i8 %316 to i32
  %318 = and i32 %317, 15
  %319 = shl i32 %318, 2
  %320 = sext i32 %319 to i64
  %321 = getelementptr inbounds [65 x i8], ptr @base64_table, i64 0, i64 %320
  %322 = load i8, ptr %321, align 1
  %323 = load ptr, ptr %7, align 8
  %324 = getelementptr inbounds i8, ptr %323, i32 1
  store ptr %324, ptr %7, align 8
  store i8 %322, ptr %323, align 1
  %325 = load ptr, ptr %7, align 8
  %326 = getelementptr inbounds i8, ptr %325, i32 1
  store ptr %326, ptr %7, align 8
  store i8 61, ptr %325, align 1
  br label %342

327:                                              ; preds = %285
  %328 = load ptr, ptr %5, align 8
  %329 = load i8, ptr %328, align 1
  %330 = zext i8 %329 to i32
  %331 = and i32 %330, 3
  %332 = shl i32 %331, 4
  %333 = sext i32 %332 to i64
  %334 = getelementptr inbounds [65 x i8], ptr @base64_table, i64 0, i64 %333
  %335 = load i8, ptr %334, align 1
  %336 = load ptr, ptr %7, align 8
  %337 = getelementptr inbounds i8, ptr %336, i32 1
  store ptr %337, ptr %7, align 8
  store i8 %335, ptr %336, align 1
  %338 = load ptr, ptr %7, align 8
  %339 = getelementptr inbounds i8, ptr %338, i32 1
  store ptr %339, ptr %7, align 8
  store i8 61, ptr %338, align 1
  %340 = load ptr, ptr %7, align 8
  %341 = getelementptr inbounds i8, ptr %340, i32 1
  store ptr %341, ptr %7, align 8
  store i8 61, ptr %340, align 1
  br label %342

342:                                              ; preds = %327, %297
  br label %343

343:                                              ; preds = %342, %282
  %344 = load ptr, ptr %7, align 8
  store i8 0, ptr %344, align 1
  %345 = load ptr, ptr %7, align 8
  store ptr %345, ptr %52, align 8
  %346 = load ptr, ptr %52, align 8
  %347 = load ptr, ptr %53, align 8
  %348 = getelementptr inbounds %struct._zend_string, ptr %347, i32 0, i32 3
  %349 = getelementptr inbounds [1 x i8], ptr %348, i64 0, i64 0
  %350 = ptrtoint ptr %346 to i64
  %351 = ptrtoint ptr %349 to i64
  %352 = sub i64 %350, %351
  %353 = load ptr, ptr %53, align 8
  %354 = getelementptr inbounds %struct._zend_string, ptr %353, i32 0, i32 2
  store i64 %352, ptr %354, align 8
  %355 = load ptr, ptr %53, align 8
  ret ptr %355
}