; Function Attrs: nounwind uwtable
define noundef ptr @php_base64_encode_avx512_vbmi(ptr nocapture noundef readonly %0, i64 noundef %1) #1 {
  %3 = add i64 %1, 2
  %4 = udiv i64 %3, 3
  %5 = tail call noalias ptr @_safe_emalloc(i64 noundef %4, i64 noundef 4, i64 noundef 32) #10
  store i32 1, ptr %5, align 4
  %6 = getelementptr inbounds i8, ptr %5, i64 4
  store i32 22, ptr %6, align 4
  %7 = getelementptr inbounds i8, ptr %5, i64 8
  store i64 0, ptr %7, align 8
  %8 = shl i64 %4, 2
  %9 = getelementptr inbounds i8, ptr %5, i64 16
  store i64 %8, ptr %9, align 8
  %10 = getelementptr inbounds i8, ptr %5, i64 24
  %11 = load <64 x i8>, ptr @base64_table, align 64
  %12 = icmp ugt i64 %1, 63
  br i1 %12, label %.lr.ph, label %.preheader

.preheader:                                       ; preds = %2
  %13 = icmp ugt i64 %1, 2
  br i1 %13, label %.lr.ph132.preheader, label %._crit_edge

.lr.ph:                                           ; preds = %2, %.lr.ph
  %.0121126 = phi i64 [ %20, %.lr.ph ], [ %1, %2 ]
  %.0122125 = phi ptr [ %18, %.lr.ph ], [ %0, %2 ]
  %.0123124 = phi ptr [ %19, %.lr.ph ], [ %10, %2 ]
  %14 = load <64 x i8>, ptr %.0122125, align 1
  %15 = shufflevector <64 x i8> %14, <64 x i8> poison, <64 x i32> <i32 1, i32 0, i32 2, i32 1, i32 4, i32 3, i32 5, i32 4, i32 7, i32 6, i32 8, i32 7, i32 10, i32 9, i32 11, i32 10, i32 13, i32 12, i32 14, i32 13, i32 16, i32 15, i32 17, i32 16, i32 19, i32 18, i32 20, i32 19, i32 22, i32 21, i32 23, i32 22, i32 25, i32 24, i32 26, i32 25, i32 28, i32 27, i32 29, i32 28, i32 31, i32 30, i32 32, i32 31, i32 34, i32 33, i32 35, i32 34, i32 37, i32 36, i32 38, i32 37, i32 40, i32 39, i32 41, i32 40, i32 43, i32 42, i32 44, i32 43, i32 46, i32 45, i32 47, i32 46>
  %16 = tail call <64 x i8> @llvm.x86.avx512.pmultishift.qb.512(<64 x i8> <i8 10, i8 4, i8 22, i8 16, i8 42, i8 36, i8 54, i8 48, i8 10, i8 4, i8 22, i8 16, i8 42, i8 36, i8 54, i8 48, i8 10, i8 4, i8 22, i8 16, i8 42, i8 36, i8 54, i8 48, i8 10, i8 4, i8 22, i8 16, i8 42, i8 36, i8 54, i8 48, i8 10, i8 4, i8 22, i8 16, i8 42, i8 36, i8 54, i8 48, i8 10, i8 4, i8 22, i8 16, i8 42, i8 36, i8 54, i8 48, i8 10, i8 4, i8 22, i8 16, i8 42, i8 36, i8 54, i8 48, i8 10, i8 4, i8 22, i8 16, i8 42, i8 36, i8 54, i8 48>, <64 x i8> %15)
  %17 = tail call <64 x i8> @llvm.x86.avx512.permvar.qi.512(<64 x i8> %11, <64 x i8> %16)
  store <64 x i8> %17, ptr %.0123124, align 1
  %18 = getelementptr inbounds i8, ptr %.0122125, i64 48
  %19 = getelementptr inbounds i8, ptr %.0123124, i64 64
  %20 = add i64 %.0121126, -48
  %21 = icmp ugt i64 %20, 63
  br i1 %21, label %.lr.ph, label %.lr.ph132.preheader

.lr.ph132.preheader:                              ; preds = %.lr.ph, %.preheader
  %.0131.ph = phi ptr [ %0, %.preheader ], [ %18, %.lr.ph ]
  %.0119130.ph = phi i64 [ %1, %.preheader ], [ %20, %.lr.ph ]
  %.0120129.ph = phi ptr [ %10, %.preheader ], [ %19, %.lr.ph ]
  br label %.lr.ph132

.lr.ph132:                                        ; preds = %.lr.ph132.preheader, %.lr.ph132
  %.0131 = phi ptr [ %53, %.lr.ph132 ], [ %.0131.ph, %.lr.ph132.preheader ]
  %.0119130 = phi i64 [ %54, %.lr.ph132 ], [ %.0119130.ph, %.lr.ph132.preheader ]
  %.0120129 = phi ptr [ %52, %.lr.ph132 ], [ %.0120129.ph, %.lr.ph132.preheader ]
  %22 = load i8, ptr %.0131, align 1
  %23 = lshr i8 %22, 2
  %24 = zext nneg i8 %23 to i64
  %25 = getelementptr inbounds [65 x i8], ptr @base64_table, i64 0, i64 %24
  %26 = load i8, ptr %25, align 1
  %27 = getelementptr inbounds i8, ptr %.0120129, i64 1
  store i8 %26, ptr %.0120129, align 1
  %28 = shl i8 %22, 4
  %29 = and i8 %28, 48
  %30 = getelementptr inbounds i8, ptr %.0131, i64 1
  %31 = load i8, ptr %30, align 1
  %32 = lshr i8 %31, 4
  %33 = or disjoint i8 %32, %29
  %34 = zext nneg i8 %33 to i64
  %35 = getelementptr inbounds [65 x i8], ptr @base64_table, i64 0, i64 %34
  %36 = load i8, ptr %35, align 1
  %37 = getelementptr inbounds i8, ptr %.0120129, i64 2
  store i8 %36, ptr %27, align 1
  %38 = shl i8 %31, 2
  %39 = and i8 %38, 60
  %40 = getelementptr inbounds i8, ptr %.0131, i64 2
  %41 = load i8, ptr %40, align 1
  %42 = lshr i8 %41, 6
  %43 = or disjoint i8 %42, %39
  %44 = zext nneg i8 %43 to i64
  %45 = getelementptr inbounds [65 x i8], ptr @base64_table, i64 0, i64 %44
  %46 = load i8, ptr %45, align 1
  %47 = getelementptr inbounds i8, ptr %.0120129, i64 3
  store i8 %46, ptr %37, align 1
  %48 = and i8 %41, 63
  %49 = zext nneg i8 %48 to i64
  %50 = getelementptr inbounds [65 x i8], ptr @base64_table, i64 0, i64 %49
  %51 = load i8, ptr %50, align 1
  %52 = getelementptr inbounds i8, ptr %.0120129, i64 4
  store i8 %51, ptr %47, align 1
  %53 = getelementptr inbounds i8, ptr %.0131, i64 3
  %54 = add nsw i64 %.0119130, -3
  %55 = icmp ugt i64 %54, 2
  br i1 %55, label %.lr.ph132, label %._crit_edge

._crit_edge:                                      ; preds = %.lr.ph132, %.preheader
  %.0120.lcssa = phi ptr [ %10, %.preheader ], [ %52, %.lr.ph132 ]
  %.0119.lcssa = phi i64 [ %1, %.preheader ], [ %54, %.lr.ph132 ]
  %.0.lcssa = phi ptr [ %0, %.preheader ], [ %53, %.lr.ph132 ]
  %.not = icmp eq i64 %.0119.lcssa, 0
  br i1 %.not, label %86, label %56

56:                                               ; preds = %._crit_edge
  %57 = load i8, ptr %.0.lcssa, align 1
  %58 = lshr i8 %57, 2
  %59 = zext nneg i8 %58 to i64
  %60 = getelementptr inbounds [65 x i8], ptr @base64_table, i64 0, i64 %59
  %61 = load i8, ptr %60, align 1
  %62 = getelementptr inbounds i8, ptr %.0120.lcssa, i64 1
  store i8 %61, ptr %.0120.lcssa, align 1
  %63 = icmp eq i64 %.0119.lcssa, 2
  %64 = shl i8 %57, 4
  %65 = and i8 %64, 48
  br i1 %63, label %66, label %80

66:                                               ; preds = %56
  %67 = getelementptr inbounds i8, ptr %.0.lcssa, i64 1
  %68 = load i8, ptr %67, align 1
  %69 = lshr i8 %68, 4
  %70 = or disjoint i8 %69, %65
  %71 = zext nneg i8 %70 to i64
  %72 = getelementptr inbounds [65 x i8], ptr @base64_table, i64 0, i64 %71
  %73 = load i8, ptr %72, align 1
  %74 = getelementptr inbounds i8, ptr %.0120.lcssa, i64 2
  store i8 %73, ptr %62, align 1
  %75 = shl i8 %68, 2
  %76 = and i8 %75, 60
  %77 = zext nneg i8 %76 to i64
  %78 = getelementptr inbounds [65 x i8], ptr @base64_table, i64 0, i64 %77
  %79 = load i8, ptr %78, align 4
  store i8 %79, ptr %74, align 1
  br label %.sink.split

80:                                               ; preds = %56
  %81 = zext nneg i8 %65 to i64
  %82 = getelementptr inbounds [65 x i8], ptr @base64_table, i64 0, i64 %81
  %83 = load i8, ptr %82, align 16
  %84 = getelementptr inbounds i8, ptr %.0120.lcssa, i64 2
  store i8 %83, ptr %62, align 1
  store i8 61, ptr %84, align 1
  br label %.sink.split

.sink.split:                                      ; preds = %80, %66
  %.sink = getelementptr inbounds i8, ptr %.0120.lcssa, i64 3
  %85 = getelementptr inbounds i8, ptr %.0120.lcssa, i64 4
  store i8 61, ptr %.sink, align 1
  br label %86

86:                                               ; preds = %.sink.split, %._crit_edge
  %.1 = phi ptr [ %.0120.lcssa, %._crit_edge ], [ %85, %.sink.split ]
  store i8 0, ptr %.1, align 1
  %87 = ptrtoint ptr %.1 to i64
  %88 = ptrtoint ptr %10 to i64
  %89 = sub i64 %87, %88
  store i64 %89, ptr %9, align 8
  ret ptr %5
}